
./a.out:     file format elf64-x86-64


Disassembly of section .init:

0000000000001000 <_init>:
    1000:	f3 0f 1e fa          	endbr64 
    1004:	48 83 ec 08          	sub    rsp,0x8
    1008:	48 8b 05 d9 2f 00 00 	mov    rax,QWORD PTR [rip+0x2fd9]        # 3fe8 <__gmon_start__>
    100f:	48 85 c0             	test   rax,rax
    1012:	74 02                	je     1016 <_init+0x16>
    1014:	ff d0                	call   rax
    1016:	48 83 c4 08          	add    rsp,0x8
    101a:	c3                   	ret    

Disassembly of section .plt:

0000000000001020 <.plt>:
    1020:	ff 35 e2 2f 00 00    	push   QWORD PTR [rip+0x2fe2]        # 4008 <_GLOBAL_OFFSET_TABLE_+0x8>
    1026:	ff 25 e4 2f 00 00    	jmp    QWORD PTR [rip+0x2fe4]        # 4010 <_GLOBAL_OFFSET_TABLE_+0x10>
    102c:	0f 1f 40 00          	nop    DWORD PTR [rax+0x0]

0000000000001030 <system@plt>:
    1030:	ff 25 e2 2f 00 00    	jmp    QWORD PTR [rip+0x2fe2]        # 4018 <system@GLIBC_2.2.5>
    1036:	68 00 00 00 00       	push   0x0
    103b:	e9 e0 ff ff ff       	jmp    1020 <.plt>

Disassembly of section .text:

0000000000001040 <_start>:
    1040:	f3 0f 1e fa          	endbr64 
    1044:	31 ed                	xor    ebp,ebp
    1046:	49 89 d1             	mov    r9,rdx
    1049:	5e                   	pop    rsi
    104a:	48 89 e2             	mov    rdx,rsp
    104d:	48 83 e4 f0          	and    rsp,0xfffffffffffffff0
    1051:	50                   	push   rax
    1052:	54                   	push   rsp
    1053:	4c 8d 05 66 01 00 00 	lea    r8,[rip+0x166]        # 11c0 <__libc_csu_fini>
    105a:	48 8d 0d ef 00 00 00 	lea    rcx,[rip+0xef]        # 1150 <__libc_csu_init>
    1061:	48 8d 3d d1 00 00 00 	lea    rdi,[rip+0xd1]        # 1139 <main>
    1068:	ff 15 72 2f 00 00    	call   QWORD PTR [rip+0x2f72]        # 3fe0 <__libc_start_main@GLIBC_2.2.5>
    106e:	f4                   	hlt    
    106f:	90                   	nop

0000000000001070 <deregister_tm_clones>:
    1070:	48 8d 3d b9 2f 00 00 	lea    rdi,[rip+0x2fb9]        # 4030 <__TMC_END__>
    1077:	48 8d 05 b2 2f 00 00 	lea    rax,[rip+0x2fb2]        # 4030 <__TMC_END__>
    107e:	48 39 f8             	cmp    rax,rdi
    1081:	74 15                	je     1098 <deregister_tm_clones+0x28>
    1083:	48 8b 05 4e 2f 00 00 	mov    rax,QWORD PTR [rip+0x2f4e]        # 3fd8 <_ITM_deregisterTMCloneTable>
    108a:	48 85 c0             	test   rax,rax
    108d:	74 09                	je     1098 <deregister_tm_clones+0x28>
    108f:	ff e0                	jmp    rax
    1091:	0f 1f 80 00 00 00 00 	nop    DWORD PTR [rax+0x0]
    1098:	c3                   	ret    
    1099:	0f 1f 80 00 00 00 00 	nop    DWORD PTR [rax+0x0]

00000000000010a0 <register_tm_clones>:
    10a0:	48 8d 3d 89 2f 00 00 	lea    rdi,[rip+0x2f89]        # 4030 <__TMC_END__>
    10a7:	48 8d 35 82 2f 00 00 	lea    rsi,[rip+0x2f82]        # 4030 <__TMC_END__>
    10ae:	48 29 fe             	sub    rsi,rdi
    10b1:	48 89 f0             	mov    rax,rsi
    10b4:	48 c1 ee 3f          	shr    rsi,0x3f
    10b8:	48 c1 f8 03          	sar    rax,0x3
    10bc:	48 01 c6             	add    rsi,rax
    10bf:	48 d1 fe             	sar    rsi,1
    10c2:	74 14                	je     10d8 <register_tm_clones+0x38>
    10c4:	48 8b 05 25 2f 00 00 	mov    rax,QWORD PTR [rip+0x2f25]        # 3ff0 <_ITM_registerTMCloneTable>
    10cb:	48 85 c0             	test   rax,rax
    10ce:	74 08                	je     10d8 <register_tm_clones+0x38>
    10d0:	ff e0                	jmp    rax
    10d2:	66 0f 1f 44 00 00    	nop    WORD PTR [rax+rax*1+0x0]
    10d8:	c3                   	ret    
    10d9:	0f 1f 80 00 00 00 00 	nop    DWORD PTR [rax+0x0]

00000000000010e0 <__do_global_dtors_aux>:
    10e0:	f3 0f 1e fa          	endbr64 
    10e4:	80 3d 45 2f 00 00 00 	cmp    BYTE PTR [rip+0x2f45],0x0        # 4030 <__TMC_END__>
    10eb:	75 33                	jne    1120 <__do_global_dtors_aux+0x40>
    10ed:	55                   	push   rbp
    10ee:	48 83 3d 02 2f 00 00 	cmp    QWORD PTR [rip+0x2f02],0x0        # 3ff8 <__cxa_finalize@GLIBC_2.2.5>
    10f5:	00 
    10f6:	48 89 e5             	mov    rbp,rsp
    10f9:	74 0d                	je     1108 <__do_global_dtors_aux+0x28>
    10fb:	48 8b 3d 26 2f 00 00 	mov    rdi,QWORD PTR [rip+0x2f26]        # 4028 <__dso_handle>
    1102:	ff 15 f0 2e 00 00    	call   QWORD PTR [rip+0x2ef0]        # 3ff8 <__cxa_finalize@GLIBC_2.2.5>
    1108:	e8 63 ff ff ff       	call   1070 <deregister_tm_clones>
    110d:	c6 05 1c 2f 00 00 01 	mov    BYTE PTR [rip+0x2f1c],0x1        # 4030 <__TMC_END__>
    1114:	5d                   	pop    rbp
    1115:	c3                   	ret    
    1116:	66 2e 0f 1f 84 00 00 	nop    WORD PTR cs:[rax+rax*1+0x0]
    111d:	00 00 00 
    1120:	c3                   	ret    
    1121:	66 66 2e 0f 1f 84 00 	data16 nop WORD PTR cs:[rax+rax*1+0x0]
    1128:	00 00 00 00 
    112c:	0f 1f 40 00          	nop    DWORD PTR [rax+0x0]

0000000000001130 <frame_dummy>:
    1130:	f3 0f 1e fa          	endbr64 
    1134:	e9 67 ff ff ff       	jmp    10a0 <register_tm_clones>

0000000000001139 <main>:
    1139:	55                   	push   rbp
    113a:	48 89 e5             	mov    rbp,rsp
    113d:	48 8d 3d c0 0e 00 00 	lea    rdi,[rip+0xec0]        # 2004 <_IO_stdin_used+0x4>
    1144:	e8 e7 fe ff ff       	call   1030 <system@plt>
    1149:	90                   	nop
    114a:	5d                   	pop    rbp
    114b:	c3                   	ret    
    114c:	0f 1f 40 00          	nop    DWORD PTR [rax+0x0]

0000000000001150 <__libc_csu_init>:
    1150:	f3 0f 1e fa          	endbr64 
    1154:	41 57                	push   r15
    1156:	4c 8d 3d 8b 2c 00 00 	lea    r15,[rip+0x2c8b]        # 3de8 <__frame_dummy_init_array_entry>
    115d:	41 56                	push   r14
    115f:	49 89 d6             	mov    r14,rdx
    1162:	41 55                	push   r13
    1164:	49 89 f5             	mov    r13,rsi
    1167:	41 54                	push   r12
    1169:	41 89 fc             	mov    r12d,edi
    116c:	55                   	push   rbp
    116d:	48 8d 2d 7c 2c 00 00 	lea    rbp,[rip+0x2c7c]        # 3df0 <__do_global_dtors_aux_fini_array_entry>
    1174:	53                   	push   rbx
    1175:	4c 29 fd             	sub    rbp,r15
    1178:	48 83 ec 08          	sub    rsp,0x8
    117c:	e8 7f fe ff ff       	call   1000 <_init>
    1181:	48 c1 fd 03          	sar    rbp,0x3
    1185:	74 1f                	je     11a6 <__libc_csu_init+0x56>
    1187:	31 db                	xor    ebx,ebx
    1189:	0f 1f 80 00 00 00 00 	nop    DWORD PTR [rax+0x0]
    1190:	4c 89 f2             	mov    rdx,r14
    1193:	4c 89 ee             	mov    rsi,r13
    1196:	44 89 e7             	mov    edi,r12d
    1199:	41 ff 14 df          	call   QWORD PTR [r15+rbx*8]
    119d:	48 83 c3 01          	add    rbx,0x1
    11a1:	48 39 dd             	cmp    rbp,rbx
    11a4:	75 ea                	jne    1190 <__libc_csu_init+0x40>
    11a6:	48 83 c4 08          	add    rsp,0x8
    11aa:	5b                   	pop    rbx
    11ab:	5d                   	pop    rbp
    11ac:	41 5c                	pop    r12
    11ae:	41 5d                	pop    r13
    11b0:	41 5e                	pop    r14
    11b2:	41 5f                	pop    r15
    11b4:	c3                   	ret    
    11b5:	66 66 2e 0f 1f 84 00 	data16 nop WORD PTR cs:[rax+rax*1+0x0]
    11bc:	00 00 00 00 

00000000000011c0 <__libc_csu_fini>:
    11c0:	f3 0f 1e fa          	endbr64 
    11c4:	c3                   	ret    

Disassembly of section .fini:

00000000000011c8 <_fini>:
    11c8:	f3 0f 1e fa          	endbr64 
    11cc:	48 83 ec 08          	sub    rsp,0x8
    11d0:	48 83 c4 08          	add    rsp,0x8
    11d4:	c3                   	ret    
